target datalayout = "e-m:e-p270:32:32-p271:32:32-p272:64:64-i64:64-i128:128-f80:128-n8:16:32:64-S128"
target triple = "x86_64-pc-linux-gnu"

; Function Attrs: null_pointer_is_valid sspstrong uwtable
define internal i32 @dissect_sip_p_charging_func_addresses(ptr noundef %0, ptr noundef %1, ptr noundef %2, i32 noundef %3, i32 noundef %4) #0 {
  %6 = alloca i32, align 4
  %7 = alloca ptr, align 8
  %8 = alloca ptr, align 8
  %9 = alloca ptr, align 8
  %10 = alloca i32, align 4
  %11 = alloca i32, align 4
  %12 = alloca i32, align 4
  %13 = alloca i32, align 4
  %14 = alloca i32, align 4
  %15 = alloca i8, align 1
  %16 = alloca i32, align 4
  store ptr %0, ptr %7, align 8
  store ptr %1, ptr %8, align 8
  store ptr %2, ptr %9, align 8
  store i32 %3, ptr %10, align 4
  store i32 %4, ptr %11, align 4
  call void @llvm.lifetime.start.p0(i64 4, ptr %12) #18
  call void @llvm.lifetime.start.p0(i64 4, ptr %13) #18
  call void @llvm.lifetime.start.p0(i64 4, ptr %14) #18
  call void @llvm.lifetime.start.p0(i64 1, ptr %15) #18
  store i8 1, ptr %15, align 1
  br label %17

17:                                               ; preds = %79, %5
  %18 = load i32, ptr %11, align 4
  %19 = load i32, ptr %10, align 4
  %20 = icmp sgt i32 %18, %19
  br i1 %20, label %21, label %89

21:                                               ; preds = %17
  %22 = load ptr, ptr %7, align 8
  %23 = load i32, ptr %10, align 4
  %24 = load i32, ptr %11, align 4
  %25 = load i32, ptr %10, align 4
  %26 = sub i32 %24, %25
  %27 = call i32 @tvb_find_uint8(ptr noundef %22, i32 noundef %23, i32 noundef %26, i8 noundef zeroext 34)
  store i32 %27, ptr %13, align 4
  %28 = load i32, ptr %13, align 4
  %29 = icmp sgt i32 %28, 0
  br i1 %29, label %30, label %60

30:                                               ; preds = %21
  %31 = load ptr, ptr %7, align 8
  %32 = load i32, ptr %13, align 4
  %33 = add i32 %32, 1
  %34 = load i32, ptr %11, align 4
  %35 = load i32, ptr %13, align 4
  %36 = add i32 %35, 1
  %37 = sub i32 %34, %36
  %38 = call i32 @tvb_find_uint8(ptr noundef %31, i32 noundef %33, i32 noundef %37, i8 noundef zeroext 34)
  store i32 %38, ptr %14, align 4
  %39 = load i32, ptr %14, align 4
  %40 = icmp sgt i32 %39, 0
  br i1 %40, label %41, label %50

41:                                               ; preds = %30
  %42 = load ptr, ptr %7, align 8
  %43 = load i32, ptr %14, align 4
  %44 = add i32 %43, 1
  %45 = load i32, ptr %11, align 4
  %46 = load i32, ptr %14, align 4
  %47 = add i32 %46, 1
  %48 = sub i32 %45, %47
  %49 = call i32 @tvb_find_uint8(ptr noundef %42, i32 noundef %44, i32 noundef %48, i8 noundef zeroext 59)
  store i32 %49, ptr %12, align 4
  br label %59

50:                                               ; preds = %30
  %51 = load ptr, ptr %7, align 8
  %52 = load i32, ptr %13, align 4
  %53 = add i32 %52, 1
  %54 = load i32, ptr %11, align 4
  %55 = load i32, ptr %13, align 4
  %56 = add i32 %55, 1
  %57 = sub i32 %54, %56
  %58 = call i32 @tvb_find_uint8(ptr noundef %51, i32 noundef %53, i32 noundef %57, i8 noundef zeroext 59)
  store i32 %58, ptr %12, align 4
  br label %59

59:                                               ; preds = %50, %41
  br label %67

60:                                               ; preds = %21
  %61 = load ptr, ptr %7, align 8
  %62 = load i32, ptr %10, align 4
  %63 = load i32, ptr %11, align 4
  %64 = load i32, ptr %10, align 4
  %65 = sub i32 %63, %64
  %66 = call i32 @tvb_find_uint8(ptr noundef %61, i32 noundef %62, i32 noundef %65, i8 noundef zeroext 59)
  store i32 %66, ptr %12, align 4
  br label %67

67:                                               ; preds = %60, %59
  %68 = load i32, ptr %12, align 4
  %69 = icmp eq i32 %68, -1
  br i1 %69, label %70, label %79

70:                                               ; preds = %67
  %71 = load i8, ptr %15, align 1, !range !12, !noundef !13
  %72 = trunc i8 %71 to i1
  %73 = zext i1 %72 to i32
  %74 = icmp eq i32 %73, 1
  br i1 %74, label %75, label %77

75:                                               ; preds = %70
  %76 = load i32, ptr %11, align 4
  store i32 %76, ptr %6, align 4
  store i32 1, ptr %16, align 4
  br label %91

77:                                               ; preds = %70
  %78 = load i32, ptr %11, align 4
  store i32 %78, ptr %12, align 4
  br label %79

79:                                               ; preds = %77, %67
  store i8 0, ptr %15, align 1
  %80 = load ptr, ptr %8, align 8
  %81 = load ptr, ptr %7, align 8
  %82 = load i32, ptr %10, align 4
  %83 = load i32, ptr %12, align 4
  %84 = load i32, ptr %10, align 4
  %85 = sub i32 %83, %84
  %86 = call ptr @proto_tree_add_format_text(ptr noundef %80, ptr noundef %81, i32 noundef %82, i32 noundef %85)
  %87 = load i32, ptr %12, align 4
  %88 = add i32 %87, 1
  store i32 %88, ptr %10, align 4
  br label %17, !llvm.loop !45

89:                                               ; preds = %17
  %90 = load i32, ptr %10, align 4
  store i32 %90, ptr %6, align 4
  store i32 1, ptr %16, align 4
  br label %91

91:                                               ; preds = %89, %75
  call void @llvm.lifetime.end.p0(i64 1, ptr %15) #18
  call void @llvm.lifetime.end.p0(i64 4, ptr %14) #18
  call void @llvm.lifetime.end.p0(i64 4, ptr %13) #18
  call void @llvm.lifetime.end.p0(i64 4, ptr %12) #18
  %92 = load i32, ptr %6, align 4
  ret i32 %92
}