; Function Attrs: null_pointer_is_valid sspstrong uwtable
define internal fastcc void @dissect_sip_p_charging_func_addresses(ptr noundef %0, ptr noundef %1, i32 noundef %2, i32 noundef %3) unnamed_addr #0 {
  %5 = icmp sgt i32 %3, %2
  br i1 %5, label %.lr.ph, label %._crit_edge

.lr.ph:                                           ; preds = %4, %24
  %.0.not2 = phi i1 [ true, %24 ], [ false, %4 ]
  %.0361 = phi i32 [ %27, %24 ], [ %2, %4 ]
  %6 = sub i32 %3, %.0361
  %7 = tail call i32 @tvb_find_uint8(ptr noundef %0, i32 noundef %.0361, i32 noundef %6, i8 noundef zeroext 34)
  %8 = icmp sgt i32 %7, 0
  br i1 %8, label %9, label %20

9:                                                ; preds = %.lr.ph
  %10 = add nuw i32 %7, 1
  %11 = sub i32 %3, %10
  %12 = tail call i32 @tvb_find_uint8(ptr noundef %0, i32 noundef %10, i32 noundef %11, i8 noundef zeroext 34)
  %13 = icmp sgt i32 %12, 0
  br i1 %13, label %14, label %18

14:                                               ; preds = %9
  %15 = add nuw i32 %12, 1
  %16 = sub i32 %3, %15
  %17 = tail call i32 @tvb_find_uint8(ptr noundef %0, i32 noundef %15, i32 noundef %16, i8 noundef zeroext 59)
  br label %22

18:                                               ; preds = %9
  %19 = tail call i32 @tvb_find_uint8(ptr noundef %0, i32 noundef %10, i32 noundef %11, i8 noundef zeroext 59)
  br label %22

20:                                               ; preds = %.lr.ph
  %21 = tail call i32 @tvb_find_uint8(ptr noundef %0, i32 noundef %.0361, i32 noundef %6, i8 noundef zeroext 59)
  br label %22

22:                                               ; preds = %14, %18, %20
  %.037 = phi i32 [ %17, %14 ], [ %19, %18 ], [ %21, %20 ]
  %23 = icmp ne i32 %.037, -1
  %brmerge = or i1 %.0.not2, %23
  br i1 %brmerge, label %24, label %._crit_edge

24:                                               ; preds = %22
  %.037.mux = select i1 %23, i32 %.037, i32 %3
  %25 = sub i32 %.037.mux, %.0361
  %26 = tail call ptr @proto_tree_add_format_text(ptr noundef %1, ptr noundef %0, i32 noundef %.0361, i32 noundef %25)
  %27 = add i32 %.037.mux, 1
  %28 = icmp sgt i32 %3, %27
  br i1 %28, label %.lr.ph, label %._crit_edge, !llvm.loop !49

._crit_edge:                                      ; preds = %24, %22, %4
  ret void
}